target datalayout = "e-m:e-p270:32:32-p271:32:32-p272:64:64-i64:64-i128:128-f80:128-n8:16:32:64-S128"
target triple = "x86_64-unknown-linux-gnu"

%"class.hermes::sem::Keywords" = type { ptr, ptr, ptr, ptr, ptr, ptr, ptr, ptr, ptr, ptr, ptr, ptr, ptr, ptr }
%"class.hermes::sem::SemanticValidator" = type { ptr, ptr, %"class.hermes::SourceErrorManager::SaveAndBufferMessages", ptr, i32, %"class.hermes::sem::Keywords", ptr, i8, i8, i32 }
%"class.hermes::SourceErrorManager::SaveAndBufferMessages" = type { ptr }
%"class.hermes::sem::FunctionContext" = type { ptr, ptr, ptr, ptr, ptr, ptr, ptr, ptr, ptr, ptr, i8, i32, %"class.llvh::DenseMap.70", %"class.hermes::sem::BlockContext", %"class.llvh::MapVector" }
%"class.llvh::DenseMap.70" = type <{ ptr, i32, i32, i32, [4 x i8] }>
%"class.hermes::sem::BlockContext" = type { ptr, ptr, ptr, ptr, i64 }
%"class.llvh::MapVector" = type { %"class.llvh::DenseMap.73", %"class.std::vector.76" }
%"class.llvh::DenseMap.73" = type <{ ptr, i32, i32, i32, [4 x i8] }>
%"class.std::vector.76" = type { %"struct.std::_Vector_base.77" }
%"struct.std::_Vector_base.77" = type { %"struct.std::_Vector_base<std::pair<const hermes::UniqueString *, llvh::SmallVector<hermes::ESTree::FunctionDeclarationNode *, 4>>, std::allocator<std::pair<const hermes::UniqueString *, llvh::SmallVector<hermes::ESTree::FunctionDeclarationNode *, 4>>>>::_Vector_impl" }
%"struct.std::_Vector_base<std::pair<const hermes::UniqueString *, llvh::SmallVector<hermes::ESTree::FunctionDeclarationNode *, 4>>, std::allocator<std::pair<const hermes::UniqueString *, llvh::SmallVector<hermes::ESTree::FunctionDeclarationNode *, 4>>>>::_Vector_impl" = type { %"struct.std::_Vector_base<std::pair<const hermes::UniqueString *, llvh::SmallVector<hermes::ESTree::FunctionDeclarationNode *, 4>>, std::allocator<std::pair<const hermes::UniqueString *, llvh::SmallVector<hermes::ESTree::FunctionDeclarationNode *, 4>>>>::_Vector_impl_data" }
%"struct.std::_Vector_base<std::pair<const hermes::UniqueString *, llvh::SmallVector<hermes::ESTree::FunctionDeclarationNode *, 4>>, std::allocator<std::pair<const hermes::UniqueString *, llvh::SmallVector<hermes::ESTree::FunctionDeclarationNode *, 4>>>>::_Vector_impl_data" = type { ptr, ptr, ptr }
%"struct.llvh::SaveAndRestore.136" = type <{ ptr, i8, [7 x i8] }>

; Function Attrs: mustprogress nounwind uwtable
define linkonce_odr hidden void @_ZN4llvh14SaveAndRestoreIbED2Ev(ptr noundef nonnull align 8 dereferenceable(9) %this) unnamed_addr #0 comdat align 2 {
entry:
  %this.addr = alloca ptr, align 8
  store ptr %this, ptr %this.addr, align 8
  %this1 = load ptr, ptr %this.addr, align 8
  %OldValue = getelementptr inbounds %"struct.llvh::SaveAndRestore.136", ptr %this1, i32 0, i32 1
  %0 = load i8, ptr %OldValue, align 8
  %tobool = trunc i8 %0 to i1
  %X = getelementptr inbounds %"struct.llvh::SaveAndRestore.136", ptr %this1, i32 0, i32 0
  %1 = load ptr, ptr %X, align 8
  %frombool = zext i1 %tobool to i8
  store i8 %frombool, ptr %1, align 1
  ret void
}

; Function Attrs: mustprogress nounwind uwtable
define linkonce_odr hidden void @_ZN6hermes6ESTree19visitESTreeChildrenINS_3sem17SemanticValidatorENS0_19ClassExpressionNodeEEEvRT_PT0_(ptr noundef nonnull align 8 dereferenceable(168) %v, ptr noundef %node) #0 comdat {
entry:
  %v.addr = alloca ptr, align 8
  %node.addr = alloca ptr, align 8
  store ptr %v, ptr %v.addr, align 8
  store ptr %node, ptr %node.addr, align 8
  %0 = load ptr, ptr %v.addr, align 8
  %1 = load ptr, ptr %node.addr, align 8
  call void @_ZN6hermes6ESTree24RecursiveVisitorDispatchINS_3sem17SemanticValidatorELb1EE13visitChildrenERS3_PNS0_19ClassExpressionNodeE(ptr noundef nonnull align 8 dereferenceable(168) %0, ptr noundef %1)
  ret void
}

; Function Attrs: mustprogress nounwind uwtable
define linkonce_odr hidden void @_ZN4llvh14SaveAndRestoreIbEC2ERbRKb(ptr noundef nonnull align 8 dereferenceable(9) %this, ptr noundef nonnull align 1 dereferenceable(1) %X, ptr noundef nonnull align 1 dereferenceable(1) %NewValue) unnamed_addr #0 comdat align 2 {
entry:
  %this.addr = alloca ptr, align 8
  %X.addr = alloca ptr, align 8
  %NewValue.addr = alloca ptr, align 8
  store ptr %this, ptr %this.addr, align 8
  store ptr %X, ptr %X.addr, align 8
  store ptr %NewValue, ptr %NewValue.addr, align 8
  %this1 = load ptr, ptr %this.addr, align 8
  %X2 = getelementptr inbounds %"struct.llvh::SaveAndRestore.136", ptr %this1, i32 0, i32 0
  %0 = load ptr, ptr %X.addr, align 8
  store ptr %0, ptr %X2, align 8
  %OldValue = getelementptr inbounds %"struct.llvh::SaveAndRestore.136", ptr %this1, i32 0, i32 1
  %1 = load ptr, ptr %X.addr, align 8
  %2 = load i8, ptr %1, align 1
  %tobool = trunc i8 %2 to i1
  %frombool = zext i1 %tobool to i8
  store i8 %frombool, ptr %OldValue, align 8
  %3 = load ptr, ptr %NewValue.addr, align 8
  %4 = load i8, ptr %3, align 1
  %tobool3 = trunc i8 %4 to i1
  %5 = load ptr, ptr %X.addr, align 8
  %frombool4 = zext i1 %tobool3 to i8
  store i8 %frombool4, ptr %5, align 1
  ret void
}

; Function Attrs: mustprogress nounwind uwtable
define linkonce_odr hidden noundef ptr @_ZN6hermes3sem17SemanticValidator11curFunctionEv(ptr noundef nonnull align 8 dereferenceable(168) %this) #0 comdat align 2 {
entry:
  %this.addr = alloca ptr, align 8
  store ptr %this, ptr %this.addr, align 8
  %this1 = load ptr, ptr %this.addr, align 8
  %funcCtx_ = getelementptr inbounds %"class.hermes::sem::SemanticValidator", ptr %this1, i32 0, i32 6
  %0 = load ptr, ptr %funcCtx_, align 8
  ret ptr %0
}

; Function Attrs: mustprogress nounwind uwtable
define hidden void @_ZN6hermes3sem17SemanticValidator5visitEPNS_6ESTree19ClassExpressionNodeE(ptr noundef nonnull align 8 dereferenceable(168) %this, ptr noundef %node) #0 align 2 {
entry:
  %this.addr = alloca ptr, align 8
  %node.addr = alloca ptr, align 8
  %oldStrictMode = alloca %"struct.llvh::SaveAndRestore.136", align 8
  %ref.tmp = alloca i8, align 1
  store ptr %this, ptr %this.addr, align 8
  store ptr %node, ptr %node.addr, align 8
  %this1 = load ptr, ptr %this.addr, align 8
  %call = call noundef ptr @_ZN6hermes3sem17SemanticValidator11curFunctionEv(ptr noundef nonnull align 8 dereferenceable(168) %this1)
  %strictMode = getelementptr inbounds %"class.hermes::sem::FunctionContext", ptr %call, i32 0, i32 10
  store i8 1, ptr %ref.tmp, align 1
  call void @_ZN4llvh14SaveAndRestoreIbEC2ERbRKb(ptr noundef nonnull align 8 dereferenceable(9) %oldStrictMode, ptr noundef nonnull align 1 dereferenceable(1) %strictMode, ptr noundef nonnull align 1 dereferenceable(1) %ref.tmp)
  %0 = load ptr, ptr %node.addr, align 8
  call void @_ZN6hermes6ESTree19visitESTreeChildrenINS_3sem17SemanticValidatorENS0_19ClassExpressionNodeEEEvRT_PT0_(ptr noundef nonnull align 8 dereferenceable(168) %this1, ptr noundef %0)
  call void @_ZN4llvh14SaveAndRestoreIbED2Ev(ptr noundef nonnull align 8 dereferenceable(9) %oldStrictMode) #11
  ret void
}