; Function Attrs: mustprogress nounwind uwtable
define hidden void @_ZN6hermes3sem17SemanticValidator5visitEPNS_6ESTree19ClassExpressionNodeE(ptr noundef nonnull align 8 dereferenceable(168) %this, ptr noundef %node) local_unnamed_addr #0 align 2 {
entry:
  %funcCtx_.i = getelementptr inbounds nuw i8, ptr %this, i64 152
  %0 = load ptr, ptr %funcCtx_.i, align 8
  %strictMode = getelementptr inbounds nuw i8, ptr %0, i64 80
  %1 = load i8, ptr %strictMode, align 1
  %frombool.i = and i8 %1, 1
  store i8 1, ptr %strictMode, align 1
  tail call void @_ZN6hermes6ESTree24RecursiveVisitorDispatchINS_3sem17SemanticValidatorELb1EE13visitChildrenERS3_PNS0_19ClassExpressionNodeE(ptr noundef nonnull align 8 dereferenceable(168) %this, ptr noundef %node)
  store i8 %frombool.i, ptr %strictMode, align 1
  ret void
}